; Function Attrs: inlinehint nounwind uwtable
define internal fastcc ptr @_PyObject_CallNoArgsTstate(ptr noundef %0, ptr noundef %1) unnamed_addr #6 {
  %3 = getelementptr i8, ptr %1, i64 8
  %.val.i.i = load ptr, ptr %3, align 8, !tbaa !20
  %4 = getelementptr i8, ptr %.val.i.i, i64 168
  %.val6.i.i = load i64, ptr %4, align 8, !tbaa !34
  %5 = and i64 %.val6.i.i, 2048
  %.not.i.i = icmp eq i64 %5, 0
  br i1 %.not.i.i, label %_PyVectorcall_FunctionInline.exit.thread.i, label %_PyVectorcall_FunctionInline.exit.i

_PyVectorcall_FunctionInline.exit.i:              ; preds = %2
  %6 = getelementptr inbounds nuw i8, ptr %.val.i.i, i64 56
  %7 = load i64, ptr %6, align 8, !tbaa !35
  %8 = getelementptr i8, ptr %1, i64 %7
  %.0.copyload.i.i = load ptr, ptr %8, align 1
  %9 = icmp eq ptr %.0.copyload.i.i, null
  br i1 %9, label %_PyVectorcall_FunctionInline.exit.thread.i, label %11

_PyVectorcall_FunctionInline.exit.thread.i:       ; preds = %_PyVectorcall_FunctionInline.exit.i, %2
  %10 = tail call ptr @_PyObject_MakeTpCall(ptr noundef %0, ptr noundef nonnull %1, ptr noundef null, i64 noundef 0, ptr noundef null)
  br label %_PyObject_VectorcallTstate.exit

11:                                               ; preds = %_PyVectorcall_FunctionInline.exit.i
  %12 = tail call ptr %.0.copyload.i.i(ptr noundef nonnull %1, ptr noundef null, i64 noundef 0, ptr noundef null) #10
  %13 = icmp eq ptr %12, null
  %14 = getelementptr i8, ptr %0, i64 112
  %.val.i = load ptr, ptr %14, align 8, !tbaa !4
  %15 = icmp eq ptr %.val.i, null
  br i1 %13, label %16, label %21

16:                                               ; preds = %11
  br i1 %15, label %18, label %_PyErr_Occurred.exit.i

_PyErr_Occurred.exit.i:                           ; preds = %16
  %17 = getelementptr i8, ptr %.val.i, i64 8
  %.val.i.i4 = load ptr, ptr %17, align 8, !tbaa !20
  %.not19.i = icmp eq ptr %.val.i.i4, null
  br i1 %.not19.i, label %18, label %_PyObject_VectorcallTstate.exit

18:                                               ; preds = %16, %_PyErr_Occurred.exit.i
  %19 = load ptr, ptr @PyExc_SystemError, align 8, !tbaa !23
  %20 = tail call ptr (ptr, ptr, ptr, ...) @_PyErr_Format(ptr noundef nonnull %0, ptr noundef %19, ptr noundef nonnull @.str, ptr noundef nonnull %1) #10
  br label %_PyObject_VectorcallTstate.exit

21:                                               ; preds = %11
  br i1 %15, label %_PyObject_VectorcallTstate.exit, label %_PyErr_Occurred.exit24.i

_PyErr_Occurred.exit24.i:                         ; preds = %21
  %22 = getelementptr i8, ptr %.val.i, i64 8
  %.val.i22.i = load ptr, ptr %22, align 8, !tbaa !20
  %.not.i = icmp eq ptr %.val.i22.i, null
  br i1 %.not.i, label %_PyObject_VectorcallTstate.exit, label %23

23:                                               ; preds = %_PyErr_Occurred.exit24.i
  %24 = load i32, ptr %12, align 8, !tbaa !24
  %.not.i.i2 = icmp sgt i32 %24, -1
  br i1 %.not.i.i2, label %25, label %29

25:                                               ; preds = %23
  %26 = add nsw i32 %24, -1
  store i32 %26, ptr %12, align 8, !tbaa !24
  %27 = icmp eq i32 %26, 0
  br i1 %27, label %28, label %29

28:                                               ; preds = %25
  tail call void @_Py_Dealloc(ptr noundef nonnull %12) #10
  br label %29

29:                                               ; preds = %23, %25, %28
  %30 = load ptr, ptr @PyExc_SystemError, align 8, !tbaa !23
  %31 = tail call ptr (ptr, ptr, ptr, ...) @_PyErr_FormatFromCauseTstate(ptr noundef nonnull %0, ptr noundef %30, ptr noundef nonnull @.str.2, ptr noundef nonnull %1) #10
  br label %_PyObject_VectorcallTstate.exit

_PyObject_VectorcallTstate.exit:                  ; preds = %29, %_PyErr_Occurred.exit24.i, %21, %18, %_PyErr_Occurred.exit.i, %_PyVectorcall_FunctionInline.exit.thread.i
  %.0.i = phi ptr [ %10, %_PyVectorcall_FunctionInline.exit.thread.i ], [ null, %18 ], [ null, %29 ], [ %12, %_PyErr_Occurred.exit24.i ], [ null, %_PyErr_Occurred.exit.i ], [ %12, %21 ]
  ret ptr %.0.i
}